ccopy_reg
_reconstructor
p0
(cmedpy.filter.IntensityRangeStandardization
IntensityRangeStandardization
p1
c__builtin__
object
p2
Ntp3
Rp4
(dp5
S'_IntensityRangeStandardization__stdrange'
p6
(cnumpy.core.multiarray
scalar
p7
(cnumpy
dtype
p8
(S'f8'
p9
I0
I1
tp10
Rp11
(I3
S'<'
p12
NNNI-1
I-1
I0
tp13
bS'\xb0J\x03\xd4y}U\xc0'
p14
tp15
Rp16
g7
(g11
S'Vi\x80:\x9e\xd0\x89@'
p17
tp18
Rp19
tp20
sS'_IntensityRangeStandardization__model'
p21
(lp22
g16
ag7
(g11
S'"\x18\x91\xab\xee\t1@'
p23
tp24
Rp25
ag7
(g11
S'C\xcfE,g\xfae@'
p26
tp27
Rp28
ag7
(g11
S'\xe0\x9c\x10\x864us@'
p29
tp30
Rp31
ag7
(g11
S'\x1d|\xb4\xda<\xa8x@'
p32
tp33
Rp34
ag7
(g11
S'7\x1d\xc3\x88\xb8\xd6{@'
p35
tp36
Rp37
ag7
(g11
S'\xd1\xf2\xf5\x1c\xbe)~@'
p38
tp39
Rp40
ag7
(g11
S'\x1c\xd7\xfa\xe5U\x15\x80@'
p41
tp42
Rp43
ag7
(g11
S'\n\xee\xee\xb9\xe7\x1a\x81@'
p44
tp45
Rp46
ag7
(g11
S'mr\x03\xc5\xae\x84\x82@'
p47
tp48
Rp49
ag19
asS'_IntensityRangeStandardization__sc_umins'
p50
(lp51
g16
ag7
(g11
S'\x82A\xe1\xb25\x108\xc0'
p52
tp53
Rp54
ag7
(g11
S'\xec\x8f\xef\x8c~fT@'
p55
tp56
Rp57
ag7
(g11
S'\x8a\xc6E\xcf\xb87k@'
p58
tp59
Rp60
ag7
(g11
S'\xfc]u\x952\x97s@'
p61
tp62
Rp63
ag7
(g11
S'\x8b\x0c\xf2h\x13*v@'
p64
tp65
Rp66
ag7
(g11
S'\xa8\x9e\x1e\xe0i\xdfw@'
p67
tp68
Rp69
ag7
(g11
S'\xb9pU\x83\xc8Ty@'
p70
tp71
Rp72
ag7
(g11
S'\xa6M\xc9M\xf4\xdbz@'
p73
tp74
Rp75
ag7
(g11
S'\nA\xd0s\xbb*}@'
p76
tp77
Rp78
ag19
asS'_IntensityRangeStandardization__sc_umaxs'
p79
(lp80
g16
ag7
(g11
S' \xfc)6\xc0\xdaO@'
p81
tp82
Rp83
ag7
(g11
S'\x857\xe8\x90v\xf5q@'
p84
tp85
Rp86
ag7
(g11
S'\n}L\x1dm\x16y@'
p87
tp88
Rp89
ag7
(g11
S'z/B\x87A\xa6}@'
p90
tp91
Rp92
ag7
(g11
S'\xb9\xd3\x91\xfc\xbfv\x80@'
p93
tp94
Rp95
ag7
(g11
S'\xcd(\xc3G\x9d\xa7\x81@'
p96
tp97
Rp98
ag7
(g11
S't\xcf\x7f\xe8A\xbf\x82@'
p99
tp100
Rp101
ag7
(g11
S'5<uP\x91\xe4\x83@'
p102
tp103
Rp104
ag7
(g11
S'\x0fo\x8e2\x8dO\x85@'
p105
tp106
Rp107
ag19
asS'_IntensityRangeStandardization__cutoffp'
p108
(lp109
F1.0
aF99.0
asS'_IntensityRangeStandardization__landmarkp'
p110
(lp111
F10.0
aF20.0
aF30.0
aF40.0
aF50.0
aF60.0
aF70.0
aF80.0
aF90.0
asb.