ccopy_reg
_reconstructor
p0
(cmedpy.filter.IntensityRangeStandardization
IntensityRangeStandardization
p1
c__builtin__
object
p2
Ntp3
Rp4
(dp5
S'_IntensityRangeStandardization__stdrange'
p6
(cnumpy.core.multiarray
scalar
p7
(cnumpy
dtype
p8
(S'f8'
p9
I0
I1
tp10
Rp11
(I3
S'<'
p12
NNNI-1
I-1
I0
tp13
bS'h3\xd7M \x9dn\xc0'
p14
tp15
Rp16
g7
(g11
S'\xda\xccu\x13y\x0f\x85@'
p17
tp18
Rp19
tp20
sS'_IntensityRangeStandardization__model'
p21
(lp22
g16
ag7
(g11
S'R\x96\xd0\x1dh\xb4B\xc0'
p23
tp24
Rp25
ag7
(g11
S'R\xd2\x18\x19\x96\xdf^@'
p26
tp27
Rp28
ag7
(g11
S'Y\x82\xb0C\x01\xfdl@'
p29
tp30
Rp31
ag7
(g11
S':\x06]\xb7\x07\x85r@'
p32
tp33
Rp34
ag7
(g11
S' fs\xf3C\x15u@'
p35
tp36
Rp37
ag7
(g11
S'\x1b\xb2\x9cF\xea\xf5v@'
p38
tp39
Rp40
ag7
(g11
S'\xb0%\x03*\x08\xa9x@'
p41
tp42
Rp43
ag7
(g11
S'\xa0(\xd9\xa4\xbb\x86z@'
p44
tp45
Rp46
ag7
(g11
S'\x8032\xaar>}@'
p47
tp48
Rp49
ag19
asS'_IntensityRangeStandardization__sc_umins'
p50
(lp51
g16
ag7
(g11
S'0\xf9\xa6b\xfa\xe9e\xc0'
p52
tp53
Rp54
ag7
(g11
S'\x1c\x89\xeb\x11\xe0\\Q\xc0'
p55
tp56
Rp57
ag7
(g11
S'\x04\xb2\xf1FPMQ@'
p58
tp59
Rp60
ag7
(g11
S'\xf8\x9b\x07|"\xe9d@'
p61
tp62
Rp63
ag7
(g11
S'\xbcp \xe4%\x93g@'
p64
tp65
Rp66
ag7
(g11
S'&\xe0\x13\x87\xae0j@'
p67
tp68
Rp69
ag7
(g11
S'R\xe1K\xbd\xcd\xfcl@'
p70
tp71
Rp72
ag7
(g11
S'V\xd5G\x94\xd0/p@'
p73
tp74
Rp75
ag7
(g11
S'\x9a\xb8.u\xdc\x08s@'
p76
tp77
Rp78
ag19
asS'_IntensityRangeStandardization__sc_umaxs'
p79
(lp80
g16
ag7
(g11
S'\xf8\xde\x02\'"\x93R@'
p81
tp82
Rp83
ag7
(g11
S"\x08\xf6S\xc4|'n@"
p84
tp85
Rp86
ag7
(g11
S'0^\xe9\t\xc9\x7fu@'
p87
tp88
Rp89
ag7
(g11
S'\x90`\xb4\xb3r\x07y@'
p90
tp91
Rp92
ag7
(g11
S'R\xd9\x8f8E\x18|@'
p93
tp94
Rp95
ag7
(g11
S'\x0e)e>\x1d\x05~@'
p96
tp97
Rp98
ag7
(g11
S'\xd06\x8a\xbad\xa7\x7f@'
p99
tp100
Rp101
ag7
(g11
S'\x97#]\xfc\xee\xab\x80@'
p102
tp103
Rp104
ag7
(g11
S'\xba,\xafC\x07\xcd\x81@'
p105
tp106
Rp107
ag19
asS'_IntensityRangeStandardization__cutoffp'
p108
(lp109
F1.0
aF99.0
asS'_IntensityRangeStandardization__landmarkp'
p110
(lp111
F10.0
aF20.0
aF30.0
aF40.0
aF50.0
aF60.0
aF70.0
aF80.0
aF90.0
asb.