ccopy_reg
_reconstructor
p0
(cmedpy.filter.IntensityRangeStandardization
IntensityRangeStandardization
p1
c__builtin__
object
p2
Ntp3
Rp4
(dp5
S'_IntensityRangeStandardization__stdrange'
p6
(cnumpy.core.multiarray
scalar
p7
(cnumpy
dtype
p8
(S'f8'
p9
I0
I1
tp10
Rp11
(I3
S'<'
p12
NNNI-1
I-1
I0
tp13
bS'\xd0<\xe5\xaa0\xd4\x84\xc0'
p14
tp15
Rp16
g7
(g11
S'h\x9erE~\xce\x96@'
p17
tp18
Rp19
tp20
sS'_IntensityRangeStandardization__model'
p21
(lp22
g16
ag7
(g11
S'7\xf8\xa6_Ez\xf3\xbf'
p23
tp24
Rp25
ag7
(g11
S'\xc57\x95\xef~_T@'
p26
tp27
Rp28
ag7
(g11
S'\xb1\xea\xb5\xc9\xda\xbca@'
p29
tp30
Rp31
ag7
(g11
S'\xc0\xcb\xb5\x13\x85di@'
p32
tp33
Rp34
ag7
(g11
S'AdO\x07\xcb\xdcp@'
p35
tp36
Rp37
ag7
(g11
S'\x07\x84d$:\xbfu@'
p38
tp39
Rp40
ag7
(g11
S'\x9a\xc3\x01\\\xef6|@'
p41
tp42
Rp43
ag7
(g11
S'\x8fnC<F\xfa\x82@'
p44
tp45
Rp46
ag7
(g11
S'\xb9\xdc\x15U\xdfY\x8b@'
p47
tp48
Rp49
ag19
asS'_IntensityRangeStandardization__sc_umins'
p50
(lp51
g16
ag7
(g11
S'\xe2\xa3p\x1f\xeekk\xc0'
p52
tp53
Rp54
ag7
(g11
S'\xa8\x8b\xde\xbc\x13@c\xc0'
p55
tp56
Rp57
ag7
(g11
S'h\x03g\xf1\xdc\x1fY\xc0'
p58
tp59
Rp60
ag7
(g11
S'0\xaf\x98\x98\x1c\xdaF\xc0'
p61
tp62
Rp63
ag7
(g11
S'\x80\x06\xd0\xe7\x1b+0@'
p64
tp65
Rp66
ag7
(g11
S'P\x84F\xea\x99\rV@'
p67
tp68
Rp69
ag7
(g11
S'\x80\x8b\xcd\xeb\xd5\xaaf@'
p70
tp71
Rp72
ag7
(g11
S'\xccu\xee\xd3=\x04t@'
p73
tp74
Rp75
ag7
(g11
S'\x12\xe1E0\xd8U\x82@'
p76
tp77
Rp78
ag19
asS'_IntensityRangeStandardization__sc_umaxs'
p79
(lp80
g16
ag7
(g11
S"\x04\xf2'\xb6\xa2\xa3a@"
p81
tp82
Rp83
ag7
(g11
S'l+\xc7^xTl@'
p84
tp85
Rp86
ag7
(g11
S'\x82u\x0c\x95\x97\xb7q@'
p87
tp88
Rp89
ag7
(g11
S'\xcc/y\x8a\xa0\xa7u@'
p90
tp91
Rp92
ag7
(g11
S'\xd0\xfax\xbd\x1cyz@'
p93
tp94
Rp95
ag7
(g11
S'\xae\xb0Ix,\x18\x80@'
p96
tp97
Rp98
ag7
(g11
S'\x16.\xea\xee\x02\xcf\x84@'
p99
tp100
Rp101
ag7
(g11
S'\xce\t\xfdW\x0e\xff\x8c@'
p102
tp103
Rp104
ag7
(g11
S'\xcf\\\r^V\x9b\x93@'
p105
tp106
Rp107
ag19
asS'_IntensityRangeStandardization__cutoffp'
p108
(lp109
F1.0
aF99.0
asS'_IntensityRangeStandardization__landmarkp'
p110
(lp111
F10.0
aF20.0
aF30.0
aF40.0
aF50.0
aF60.0
aF70.0
aF80.0
aF90.0
asb.