ccopy_reg
_reconstructor
p0
(cmedpy.filter.IntensityRangeStandardization
IntensityRangeStandardization
p1
c__builtin__
object
p2
Ntp3
Rp4
(dp5
S'_IntensityRangeStandardization__stdrange'
p6
(cnumpy.core.multiarray
scalar
p7
(cnumpy
dtype
p8
(S'f8'
p9
I0
I1
tp10
Rp11
(I3
S'<'
p12
NNNI-1
I-1
I0
tp13
bS'\xf6\xd88c\xc2@f\xc0'
p14
tp15
Rp16
g7
(g11
S'>6\xce\xe8D]\x81@'
p17
tp18
Rp19
tp20
sS'_IntensityRangeStandardization__model'
p21
(lp22
g16
ag7
(g11
S'\xfaY\x19\xc2g\x01J\xc0'
p23
tp24
Rp25
ag7
(g11
S'\xd7\x10\xec\xf2t\xa7U@'
p26
tp27
Rp28
ag7
(g11
S'w6Xg\xde\x89h@'
p29
tp30
Rp31
ag7
(g11
S'\xd7\xbf\xd9\xb9\xdc\x83p@'
p32
tp33
Rp34
ag7
(g11
S'\xc8\x06\xfa\xc0Z\x19s@'
p35
tp36
Rp37
ag7
(g11
S'\x1a\xcc\t\xb9\x84\xdbt@'
p38
tp39
Rp40
ag7
(g11
S'Y\xbf\x07\x0b\xffCv@'
p41
tp42
Rp43
ag7
(g11
S'](\x01\xe3x\xa7w@'
p44
tp45
Rp46
ag7
(g11
S'\xf2\xd1T\x8e\xba\x89y@'
p47
tp48
Rp49
ag19
asS'_IntensityRangeStandardization__sc_umins'
p50
(lp51
g16
ag7
(g11
S'"\x82\x1e+Pm^\xc0'
p52
tp53
Rp54
ag7
(g11
S'\xe0\x0ehT\xae\x18?\xc0'
p55
tp56
Rp57
ag7
(g11
S'\xba\\e4pQS@'
p58
tp59
Rp60
ag7
(g11
S'\xb2\xa1\x93\xf9C7a@'
p61
tp62
Rp63
ag7
(g11
S'\xd6\xed)\x94[ec@'
p64
tp65
Rp66
ag7
(g11
S'\xd6\xc3T@\x8e\x0ce@'
p67
tp68
Rp69
ag7
(g11
S'\xa6\xd6J\xbb\xd8\xacf@'
p70
tp71
Rp72
ag7
(g11
S'\x9a\xbb_\x91\x8e\xa9h@'
p73
tp74
Rp75
ag7
(g11
S'\x16je\xd4\xedjl@'
p76
tp77
Rp78
ag19
asS'_IntensityRangeStandardization__sc_umaxs'
p79
(lp80
g16
ag7
(g11
S'@\xbf\xd3.0\x1f\x0c@'
p81
tp82
Rp83
ag7
(g11
S'f\xca\xeb\xb9\x8d\x91f@'
p84
tp85
Rp86
ag7
(g11
S"'I \xbc(\xa8r@"
p87
tp88
Rp89
ag7
(g11
S'{F)*\xd8\x85v@'
p90
tp91
Rp92
ag7
(g11
S'#\xb3:Z\xd1ox@'
p93
tp94
Rp95
ag7
(g11
S'i\x9d\xbcXb\xbey@'
p96
tp97
Rp98
ag7
(g11
S'\xb3\xaa\x8e\xa8\xcd\xe2z@'
p99
tp100
Rp101
ag7
(g11
S'\x9f!\xd0w\xc9\x16|@'
p102
tp103
Rp104
ag7
(g11
S'[\xfcE\x90V\xc3}@'
p105
tp106
Rp107
ag19
asS'_IntensityRangeStandardization__cutoffp'
p108
(lp109
F1.0
aF99.0
asS'_IntensityRangeStandardization__landmarkp'
p110
(lp111
F10.0
aF20.0
aF30.0
aF40.0
aF50.0
aF60.0
aF70.0
aF80.0
aF90.0
asb.