ccopy_reg
_reconstructor
p0
(cmedpy.filter.IntensityRangeStandardization
IntensityRangeStandardization
p1
c__builtin__
object
p2
Ntp3
Rp4
(dp5
S'_IntensityRangeStandardization__stdrange'
p6
(cnumpy.core.multiarray
scalar
p7
(cnumpy
dtype
p8
(S'f8'
p9
I0
I1
tp10
Rp11
(I3
S'<'
p12
NNNI-1
I-1
I0
tp13
bS'f\x86\xf5I\xe6`z\xc0'
p14
tp15
Rp16
g7
(g11
S'\x9aa}b\xce\xbc\x92@'
p17
tp18
Rp19
tp20
sS'_IntensityRangeStandardization__model'
p21
(lp22
g16
ag7
(g11
S'\xa2A8\xd0n\xa8\x1d@'
p23
tp24
Rp25
ag7
(g11
S'\xd6$\x11\xcb\xf8\xc6p@'
p26
tp27
Rp28
ag7
(g11
S'\x0f\x04\xd2\xb1U\x02}@'
p29
tp30
Rp31
ag7
(g11
S'g\xc1\x08\x9e\x8e\xd7\x82@'
p32
tp33
Rp34
ag7
(g11
S'\x85\xf4\x015O,\x86@'
p35
tp36
Rp37
ag7
(g11
S'\xf9\x94\xa2x\x9a2\x89@'
p38
tp39
Rp40
ag7
(g11
S'\xfeV\xb3L\x98)\x8c@'
p41
tp42
Rp43
ag7
(g11
S'"\\_\x84P\x08\x8f@'
p44
tp45
Rp46
ag7
(g11
S'\xdfn\xd2\x88\xd2\xda\x90@'
p47
tp48
Rp49
ag19
asS'_IntensityRangeStandardization__sc_umins'
p50
(lp51
g16
ag7
(g11
S'~\x01\xf8WC\x03c\xc0'
p52
tp53
Rp54
ag7
(g11
S'\xb0\xaf\xb4z\x89&S@'
p55
tp56
Rp57
ag7
(g11
S'\xa6\x96c\x03\x80\x11q@'
p58
tp59
Rp60
ag7
(g11
S'\xb8\xcc`+{6z@'
p61
tp62
Rp63
ag7
(g11
S'j\xb4\xddkH\x9e\x80@'
p64
tp65
Rp66
ag7
(g11
S'\xdf I\x85\r\x19\x84@'
p67
tp68
Rp69
ag7
(g11
S'+j\xb4Wd\xe8\x87@'
p70
tp71
Rp72
ag7
(g11
S'\x9b\xe6,\xcd\xc1\xaf\x8b@'
p73
tp74
Rp75
ag7
(g11
S'Et\xb8\xeb\x04X\x8f@'
p76
tp77
Rp78
ag19
asS'_IntensityRangeStandardization__sc_umaxs'
p79
(lp80
g16
ag7
(g11
S'\x90\xfd\xe4\xe5\xcc\xb9c@'
p81
tp82
Rp83
ag7
(g11
S'\x16\x15\x8c\x93\xf50{@'
p84
tp85
Rp86
ag7
(g11
S'\xcd\xd6\x89\xf9\xc1\x86\x83@'
p87
tp88
Rp89
ag7
(g11
S'\x1b\x11\xb2\xedHm\x87@'
p90
tp91
Rp92
ag7
(g11
S'\x83\xb2>:\xcb5\x8a@'
p93
tp94
Rp95
ag7
(g11
S"\xd3\xde,''\x9e\x8c@"
p96
tp97
Rp98
ag7
(g11
S'\x01\xdaf\x96\x99\xf1\x8e@'
p99
tp100
Rp101
ag7
(g11
S',\xb9L\xcdc\x8a\x90@'
p102
tp103
Rp104
ag7
(g11
S'NJ\x02u<r\x91@'
p105
tp106
Rp107
ag19
asS'_IntensityRangeStandardization__cutoffp'
p108
(lp109
F1.0
aF99.0
asS'_IntensityRangeStandardization__landmarkp'
p110
(lp111
F10.0
aF20.0
aF30.0
aF40.0
aF50.0
aF60.0
aF70.0
aF80.0
aF90.0
asb.